; Function Attrs: nounwind uwtable
define internal fastcc range(i32 0, 2) i32 @setKeepalivesCount(ptr noundef nonnull %0) unnamed_addr #0 {
  %2 = alloca ptr, align 8
  %3 = alloca i32, align 4
  %4 = alloca [256 x i8], align 16
  call void @llvm.lifetime.start.p0(i64 4, ptr nonnull %3) #25
  %5 = getelementptr inbounds nuw i8, ptr %0, i64 152
  %6 = load ptr, ptr %5, align 8
  %7 = icmp eq ptr %6, null
  br i1 %7, label %41, label %8

8:                                                ; preds = %1
  call void @llvm.lifetime.start.p0(i64 8, ptr nonnull %2) #25
  %9 = tail call ptr @__errno_location() #28
  store i32 0, ptr %9, align 4
  %10 = call i64 @strtol(ptr noundef nonnull %6, ptr noundef nonnull %2, i32 noundef 10) #25
  %11 = load ptr, ptr %2, align 8
  %12 = icmp eq ptr %6, %11
  br i1 %12, label %pqParseIntParam.exit, label %13

13:                                               ; preds = %8
  %14 = load i32, ptr %9, align 4
  %.not.i = icmp eq i32 %14, 0
  br i1 %.not.i, label %15, label %pqParseIntParam.exit

15:                                               ; preds = %13
  %16 = trunc i64 %10 to i32
  %17 = add i64 %10, 2147483648
  %.not10.i = icmp ult i64 %17, 4294967296
  br i1 %.not10.i, label %.preheader.i, label %pqParseIntParam.exit

.preheader.i:                                     ; preds = %15
  %18 = load i8, ptr %11, align 1
  %.not1115.i = icmp eq i8 %18, 0
  br i1 %.not1115.i, label %.loopexit, label %.lr.ph.i

.lr.ph.i:                                         ; preds = %.preheader.i
  %19 = tail call ptr @__ctype_b_loc() #28
  %20 = load ptr, ptr %19, align 8
  br label %21

21:                                               ; preds = %28, %.lr.ph.i
  %22 = phi i8 [ %18, %.lr.ph.i ], [ %30, %28 ]
  %23 = phi ptr [ %11, %.lr.ph.i ], [ %29, %28 ]
  %24 = zext i8 %22 to i64
  %25 = getelementptr inbounds nuw i16, ptr %20, i64 %24
  %26 = load i16, ptr %25, align 2
  %27 = and i16 %26, 8192
  %.not12.i = icmp eq i16 %27, 0
  br i1 %.not12.i, label %pqParseIntParam.exit, label %28

28:                                               ; preds = %21
  %29 = getelementptr inbounds nuw i8, ptr %23, i64 1
  %30 = load i8, ptr %29, align 1
  %.not11.i = icmp eq i8 %30, 0
  br i1 %.not11.i, label %.loopexit, label %21, !llvm.loop !15

pqParseIntParam.exit:                             ; preds = %21, %8, %13, %15
  tail call void (ptr, ptr, ...) @libpq_append_conn_error(ptr noundef nonnull %0, ptr noundef nonnull @.str.102, ptr noundef nonnull %6, ptr noundef nonnull @.str.148) #25
  call void @llvm.lifetime.end.p0(i64 8, ptr nonnull %2) #25
  br label %41

.loopexit:                                        ; preds = %28, %.preheader.i
  store i32 %16, ptr %3, align 4
  call void @llvm.lifetime.end.p0(i64 8, ptr nonnull %2) #25
  %31 = icmp slt i32 %16, 0
  br i1 %31, label %32, label %33

32:                                               ; preds = %.loopexit
  store i32 0, ptr %3, align 4
  br label %33

33:                                               ; preds = %32, %.loopexit
  %34 = getelementptr inbounds nuw i8, ptr %0, i64 520
  %35 = load i32, ptr %34, align 8
  %36 = call i32 @setsockopt(i32 noundef %35, i32 noundef 6, i32 noundef 6, ptr noundef nonnull %3, i32 noundef 4) #25
  %37 = icmp slt i32 %36, 0
  br i1 %37, label %38, label %41

38:                                               ; preds = %33
  call void @llvm.lifetime.start.p0(i64 256, ptr nonnull %4) #25
  %39 = load i32, ptr %9, align 4
  %40 = call ptr @pg_strerror_r(i32 noundef %39, ptr noundef nonnull %4, i64 noundef 256) #25
  call void (ptr, ptr, ...) @libpq_append_conn_error(ptr noundef nonnull %0, ptr noundef nonnull @.str.68, ptr noundef nonnull @.str.69, ptr noundef nonnull @.str.221, ptr noundef %40) #25
  call void @llvm.lifetime.end.p0(i64 256, ptr nonnull %4) #25
  br label %41

41:                                               ; preds = %pqParseIntParam.exit, %33, %1, %38
  %.0 = phi i32 [ 0, %38 ], [ 1, %1 ], [ 0, %pqParseIntParam.exit ], [ 1, %33 ]
  call void @llvm.lifetime.end.p0(i64 4, ptr nonnull %3) #25
  ret i32 %.0
}